target datalayout = "e-m:e-p270:32:32-p271:32:32-p272:64:64-i64:64-i128:128-f80:128-n8:16:32:64-S128"
target triple = "x86_64-pc-linux-gnu"

@TextToCamel.buffer = internal global [1024 x i8] zeroinitializer, align 16

; Function Attrs: nounwind uwtable
define ptr @TextToCamel(ptr noundef %0) #0 {
  %2 = alloca ptr, align 8
  %3 = alloca i32, align 4
  %4 = alloca i32, align 4
  store ptr %0, ptr %2, align 8
  call void @llvm.memset.p0.i64(ptr align 16 @TextToCamel.buffer, i8 0, i64 1024, i1 false)
  %5 = load ptr, ptr %2, align 8
  %6 = icmp ne ptr %5, null
  br i1 %6, label %7, label %100

7:                                                ; preds = %1
  %8 = load ptr, ptr %2, align 8
  %9 = getelementptr inbounds i8, ptr %8, i64 0
  %10 = load i8, ptr %9, align 1
  %11 = sext i8 %10 to i32
  %12 = icmp sge i32 %11, 65
  br i1 %12, label %13, label %26

13:                                               ; preds = %7
  %14 = load ptr, ptr %2, align 8
  %15 = getelementptr inbounds i8, ptr %14, i64 0
  %16 = load i8, ptr %15, align 1
  %17 = sext i8 %16 to i32
  %18 = icmp sle i32 %17, 90
  br i1 %18, label %19, label %26

19:                                               ; preds = %13
  %20 = load ptr, ptr %2, align 8
  %21 = getelementptr inbounds i8, ptr %20, i64 0
  %22 = load i8, ptr %21, align 1
  %23 = sext i8 %22 to i32
  %24 = add nsw i32 %23, 32
  %25 = trunc i32 %24 to i8
  store i8 %25, ptr @TextToCamel.buffer, align 16
  br label %30

26:                                               ; preds = %13, %7
  %27 = load ptr, ptr %2, align 8
  %28 = getelementptr inbounds i8, ptr %27, i64 0
  %29 = load i8, ptr %28, align 1
  store i8 %29, ptr @TextToCamel.buffer, align 16
  br label %30

30:                                               ; preds = %26, %19
  call void @llvm.lifetime.start.p0(i64 4, ptr %3) #13
  store i32 1, ptr %3, align 4
  call void @llvm.lifetime.start.p0(i64 4, ptr %4) #13
  store i32 1, ptr %4, align 4
  br label %31

31:                                               ; preds = %94, %30
  %32 = load i32, ptr %3, align 4
  %33 = icmp slt i32 %32, 1023
  br i1 %33, label %34, label %42

34:                                               ; preds = %31
  %35 = load ptr, ptr %2, align 8
  %36 = load i32, ptr %4, align 4
  %37 = sext i32 %36 to i64
  %38 = getelementptr inbounds i8, ptr %35, i64 %37
  %39 = load i8, ptr %38, align 1
  %40 = sext i8 %39 to i32
  %41 = icmp ne i32 %40, 0
  br label %42

42:                                               ; preds = %34, %31
  %43 = phi i1 [ false, %31 ], [ %41, %34 ]
  br i1 %43, label %45, label %44

44:                                               ; preds = %42
  call void @llvm.lifetime.end.p0(i64 4, ptr %4) #13
  call void @llvm.lifetime.end.p0(i64 4, ptr %3) #13
  br label %99

45:                                               ; preds = %42
  %46 = load ptr, ptr %2, align 8
  %47 = load i32, ptr %4, align 4
  %48 = sext i32 %47 to i64
  %49 = getelementptr inbounds i8, ptr %46, i64 %48
  %50 = load i8, ptr %49, align 1
  %51 = sext i8 %50 to i32
  %52 = icmp ne i32 %51, 95
  br i1 %52, label %53, label %62

53:                                               ; preds = %45
  %54 = load ptr, ptr %2, align 8
  %55 = load i32, ptr %4, align 4
  %56 = sext i32 %55 to i64
  %57 = getelementptr inbounds i8, ptr %54, i64 %56
  %58 = load i8, ptr %57, align 1
  %59 = load i32, ptr %3, align 4
  %60 = sext i32 %59 to i64
  %61 = getelementptr inbounds [1024 x i8], ptr @TextToCamel.buffer, i64 0, i64 %60
  store i8 %58, ptr %61, align 1
  br label %93

62:                                               ; preds = %45
  %63 = load i32, ptr %4, align 4
  %64 = add nsw i32 %63, 1
  store i32 %64, ptr %4, align 4
  %65 = load ptr, ptr %2, align 8
  %66 = load i32, ptr %4, align 4
  %67 = sext i32 %66 to i64
  %68 = getelementptr inbounds i8, ptr %65, i64 %67
  %69 = load i8, ptr %68, align 1
  %70 = sext i8 %69 to i32
  %71 = icmp sge i32 %70, 97
  br i1 %71, label %72, label %92

72:                                               ; preds = %62
  %73 = load ptr, ptr %2, align 8
  %74 = load i32, ptr %4, align 4
  %75 = sext i32 %74 to i64
  %76 = getelementptr inbounds i8, ptr %73, i64 %75
  %77 = load i8, ptr %76, align 1
  %78 = sext i8 %77 to i32
  %79 = icmp sle i32 %78, 122
  br i1 %79, label %80, label %92

80:                                               ; preds = %72
  %81 = load ptr, ptr %2, align 8
  %82 = load i32, ptr %4, align 4
  %83 = sext i32 %82 to i64
  %84 = getelementptr inbounds i8, ptr %81, i64 %83
  %85 = load i8, ptr %84, align 1
  %86 = sext i8 %85 to i32
  %87 = sub nsw i32 %86, 32
  %88 = trunc i32 %87 to i8
  %89 = load i32, ptr %3, align 4
  %90 = sext i32 %89 to i64
  %91 = getelementptr inbounds [1024 x i8], ptr @TextToCamel.buffer, i64 0, i64 %90
  store i8 %88, ptr %91, align 1
  br label %92

92:                                               ; preds = %80, %72, %62
  br label %93

93:                                               ; preds = %92, %53
  br label %94

94:                                               ; preds = %93
  %95 = load i32, ptr %3, align 4
  %96 = add nsw i32 %95, 1
  store i32 %96, ptr %3, align 4
  %97 = load i32, ptr %4, align 4
  %98 = add nsw i32 %97, 1
  store i32 %98, ptr %4, align 4
  br label %31

99:                                               ; preds = %44
  br label %100

100:                                              ; preds = %99, %1
  ret ptr @TextToCamel.buffer
}