; Function Attrs: nofree norecurse nosync nounwind memory(write, argmem: read, inaccessiblemem: none) uwtable
define noundef nonnull ptr @TextToCamel(ptr noundef readonly captures(address_is_null) %0) local_unnamed_addr #16 {
  tail call void @llvm.memset.p0.i64(ptr noundef nonnull align 16 dereferenceable(1024) @TextToCamel.buffer, i8 0, i64 1024, i1 false)
  %.not = icmp eq ptr %0, null
  br i1 %.not, label %.critedge, label %2

2:                                                ; preds = %1
  %3 = load i8, ptr %0, align 1
  %4 = add i8 %3, -65
  %or.cond = icmp ult i8 %4, 26
  %5 = add nuw nsw i8 %3, 32
  %spec.select = select i1 %or.cond, i8 %5, i8 %3
  store i8 %spec.select, ptr @TextToCamel.buffer, align 16
  br label %6

6:                                                ; preds = %2, %18
  %indvars.iv = phi i64 [ 1, %2 ], [ %indvars.iv.next, %18 ]
  %.031 = phi i32 [ 1, %2 ], [ %19, %18 ]
  %7 = sext i32 %.031 to i64
  %8 = getelementptr inbounds i8, ptr %0, i64 %7
  %9 = load i8, ptr %8, align 1
  switch i8 %9, label %.sink.split [
    i8 0, label %.critedge
    i8 95, label %10
  ]

10:                                               ; preds = %6
  %11 = add nsw i32 %.031, 1
  %12 = sext i32 %11 to i64
  %13 = getelementptr inbounds i8, ptr %0, i64 %12
  %14 = load i8, ptr %13, align 1
  %15 = add i8 %14, -97
  %or.cond29 = icmp ult i8 %15, 26
  br i1 %or.cond29, label %16, label %18

16:                                               ; preds = %10
  %narrow = add nsw i8 %14, -32
  br label %.sink.split

.sink.split:                                      ; preds = %6, %16
  %.sink = phi i8 [ %narrow, %16 ], [ %9, %6 ]
  %.1.ph = phi i32 [ %11, %16 ], [ %.031, %6 ]
  %17 = getelementptr inbounds nuw [1024 x i8], ptr @TextToCamel.buffer, i64 0, i64 %indvars.iv
  store i8 %.sink, ptr %17, align 1
  br label %18

18:                                               ; preds = %.sink.split, %10
  %.1 = phi i32 [ %11, %10 ], [ %.1.ph, %.sink.split ]
  %indvars.iv.next = add nuw nsw i64 %indvars.iv, 1
  %19 = add nsw i32 %.1, 1
  %exitcond.not = icmp eq i64 %indvars.iv.next, 1023
  br i1 %exitcond.not, label %.critedge, label %6

.critedge:                                        ; preds = %6, %18, %1
  ret ptr @TextToCamel.buffer
}